; Function Attrs: mustprogress nofree norecurse nosync nounwind willreturn memory(read, inaccessiblemem: none) uwtable
define noundef zeroext i1 @_ZNK32pxrInternal_v0_24__pxrReserved__7GfVec4ieqERKNS_7GfVec4hE(ptr nocapture noundef nonnull readonly align 4 dereferenceable(16) %0, ptr nocapture noundef nonnull readonly align 2 dereferenceable(8) %1) local_unnamed_addr #3 align 2 {
  %3 = load i32, ptr %0, align 4
  %4 = sitofp i32 %3 to float
  %5 = load i16, ptr %1, align 2
  %6 = zext i16 %5 to i64
  %7 = getelementptr inbounds [65536 x %"union.pxrInternal_v0_24__pxrReserved__::pxr_half::half::uif"], ptr @_ZN32pxrInternal_v0_24__pxrReserved__8pxr_half4half8_toFloatE, i64 0, i64 %6
  %8 = load float, ptr %7, align 4
  %9 = fcmp oeq float %8, %4
  br i1 %9, label %10, label %40

10:                                               ; preds = %2
  %11 = getelementptr inbounds i8, ptr %0, i64 4
  %12 = load i32, ptr %11, align 4
  %13 = sitofp i32 %12 to float
  %14 = getelementptr inbounds i8, ptr %1, i64 2
  %15 = load i16, ptr %14, align 2
  %16 = zext i16 %15 to i64
  %17 = getelementptr inbounds [65536 x %"union.pxrInternal_v0_24__pxrReserved__::pxr_half::half::uif"], ptr @_ZN32pxrInternal_v0_24__pxrReserved__8pxr_half4half8_toFloatE, i64 0, i64 %16
  %18 = load float, ptr %17, align 4
  %19 = fcmp oeq float %18, %13
  br i1 %19, label %20, label %40

20:                                               ; preds = %10
  %21 = getelementptr inbounds i8, ptr %0, i64 8
  %22 = load i32, ptr %21, align 4
  %23 = sitofp i32 %22 to float
  %24 = getelementptr inbounds i8, ptr %1, i64 4
  %25 = load i16, ptr %24, align 2
  %26 = zext i16 %25 to i64
  %27 = getelementptr inbounds [65536 x %"union.pxrInternal_v0_24__pxrReserved__::pxr_half::half::uif"], ptr @_ZN32pxrInternal_v0_24__pxrReserved__8pxr_half4half8_toFloatE, i64 0, i64 %26
  %28 = load float, ptr %27, align 4
  %29 = fcmp oeq float %28, %23
  br i1 %29, label %30, label %40

30:                                               ; preds = %20
  %31 = getelementptr inbounds i8, ptr %0, i64 12
  %32 = load i32, ptr %31, align 4
  %33 = sitofp i32 %32 to float
  %34 = getelementptr inbounds i8, ptr %1, i64 6
  %35 = load i16, ptr %34, align 2
  %36 = zext i16 %35 to i64
  %37 = getelementptr inbounds [65536 x %"union.pxrInternal_v0_24__pxrReserved__::pxr_half::half::uif"], ptr @_ZN32pxrInternal_v0_24__pxrReserved__8pxr_half4half8_toFloatE, i64 0, i64 %36
  %38 = load float, ptr %37, align 4
  %39 = fcmp oeq float %38, %33
  br label %40

40:                                               ; preds = %30, %20, %10, %2
  %41 = phi i1 [ false, %20 ], [ false, %10 ], [ false, %2 ], [ %39, %30 ]
  ret i1 %41
}